; Function Attrs: nofree nosync nounwind memory(readwrite, inaccessiblemem: none) uwtable
define range(i32 0, 2) i32 @Dch_ObjMarkTfi_rec(ptr noundef readonly captures(none) %0, ptr noundef %1) local_unnamed_addr #0 {
  %3 = icmp eq ptr %1, null
  br i1 %3, label %.loopexit, label %.lr.ph

.lr.ph:                                           ; preds = %2
  %4 = getelementptr i8, ptr %0, i64 312
  br label %5

5:                                                ; preds = %.lr.ph, %tailrecurse
  %.tr2933 = phi ptr [ %1, %.lr.ph ], [ %22, %tailrecurse ]
  %accumulator.tr32 = phi i32 [ 0, %.lr.ph ], [ %23, %tailrecurse ]
  %.val = load i32, ptr %4, align 8
  %6 = getelementptr i8, ptr %.tr2933, i64 32
  %.val20 = load i32, ptr %6, align 8
  %.not = icmp eq i32 %.val20, %.val
  br i1 %.not, label %.loopexit, label %7

7:                                                ; preds = %5
  %8 = getelementptr i8, ptr %.tr2933, i64 24
  %.val23 = load i64, ptr %8, align 8
  %9 = and i64 %.val23, 7
  %.not28 = icmp eq i64 %9, 2
  br i1 %.not28, label %10, label %tailrecurse

10:                                               ; preds = %7
  %11 = add nsw i32 %.val, -1
  %12 = icmp ne i32 %.val20, %11
  %13 = zext i1 %12 to i32
  store i32 %.val, ptr %6, align 8
  br label %.loopexit

tailrecurse:                                      ; preds = %7
  store i32 %.val, ptr %6, align 8
  %14 = getelementptr i8, ptr %.tr2933, i64 8
  %.val24 = load ptr, ptr %14, align 8
  %15 = ptrtoint ptr %.val24 to i64
  %16 = and i64 %15, -2
  %17 = inttoptr i64 %16 to ptr
  %18 = tail call i32 @Dch_ObjMarkTfi_rec(ptr noundef nonnull %0, ptr noundef %17)
  %19 = getelementptr i8, ptr %.tr2933, i64 16
  %.val25 = load ptr, ptr %19, align 8
  %20 = ptrtoint ptr %.val25 to i64
  %21 = and i64 %20, -2
  %22 = inttoptr i64 %21 to ptr
  %23 = or i32 %18, %accumulator.tr32
  %24 = icmp eq i64 %21, 0
  br i1 %24, label %.loopexit, label %5

.loopexit:                                        ; preds = %tailrecurse, %5, %2, %10
  %accumulator.tr31 = phi i32 [ %accumulator.tr32, %10 ], [ 0, %2 ], [ %23, %tailrecurse ], [ %accumulator.tr32, %5 ]
  %.0 = phi i32 [ %13, %10 ], [ 0, %2 ], [ 0, %5 ], [ 0, %tailrecurse ]
  %accumulator.ret.tr = or i32 %.0, %accumulator.tr31
  ret i32 %accumulator.ret.tr
}